; ModuleID = 'source-C-CXX/61/1932.cpp'
source_filename = "source-C-CXX/61/1932.cpp"
target datalayout = "e-m:e-p270:32:32-p271:32:32-p272:64:64-i64:64-f80:128-n8:16:32:64-S128"
target triple = "x86_64-pc-linux-gnu"

%"class.std::ios_base::Init" = type { i8 }
%"class.std::basic_istream" = type { i32 (...)**, i64, %"class.std::basic_ios" }
%"class.std::basic_ios" = type { %"class.std::ios_base", %"class.std::basic_ostream"*, i8, i8, %"class.std::basic_streambuf"*, %"class.std::ctype"*, %"class.std::num_put"*, %"class.std::num_get"* }
%"class.std::ios_base" = type { i32 (...)**, i64, i64, i32, i32, i32, %"struct.std::ios_base::_Callback_list"*, %"struct.std::ios_base::_Words", [8 x %"struct.std::ios_base::_Words"], i32, %"struct.std::ios_base::_Words"*, %"class.std::locale" }
%"struct.std::ios_base::_Callback_list" = type { %"struct.std::ios_base::_Callback_list"*, void (i32, %"class.std::ios_base"*, i32)*, i32, i32 }
%"struct.std::ios_base::_Words" = type { i8*, i64 }
%"class.std::locale" = type { %"class.std::locale::_Impl"* }
%"class.std::locale::_Impl" = type { i32, %"class.std::locale::facet"**, i64, %"class.std::locale::facet"**, i8** }
%"class.std::locale::facet" = type <{ i32 (...)**, i32, [4 x i8] }>
%"class.std::basic_ostream" = type { i32 (...)**, %"class.std::basic_ios" }
%"class.std::basic_streambuf" = type { i32 (...)**, i8*, i8*, i8*, i8*, i8*, i8*, %"class.std::locale" }
%"class.std::ctype" = type <{ %"class.std::locale::facet.base", [4 x i8], %struct.__locale_struct*, i8, [7 x i8], i32*, i32*, i16*, i8, [256 x i8], [256 x i8], i8, [6 x i8] }>
%"class.std::locale::facet.base" = type <{ i32 (...)**, i32 }>
%struct.__locale_struct = type { [13 x %struct.__locale_data*], i16*, i32*, i32*, [13 x i8*] }
%struct.__locale_data = type opaque
%"class.std::num_put" = type { %"class.std::locale::facet.base", [4 x i8] }
%"class.std::num_get" = type { %"class.std::locale::facet.base", [4 x i8] }

@_ZStL8__ioinit = internal global %"class.std::ios_base::Init" zeroinitializer, align 1
@__dso_handle = external hidden global i8
@_ZSt3cin = external global %"class.std::basic_istream", align 8
@_ZSt4cout = external global %"class.std::basic_ostream", align 8
@llvm.global_ctors = appending global [1 x { i32, void ()*, i8* }] [{ i32, void ()*, i8* } { i32 65535, void ()* @_GLOBAL__sub_I_1932.cpp, i8* null }]

declare void @_ZNSt8ios_base4InitC1Ev(%"class.std::ios_base::Init"* nonnull align 1 dereferenceable(1)) unnamed_addr #0

; Function Attrs: nounwind
declare void @_ZNSt8ios_base4InitD1Ev(%"class.std::ios_base::Init"* nonnull align 1 dereferenceable(1)) unnamed_addr #1

; Function Attrs: nofree nounwind
declare i32 @__cxa_atexit(void (i8*)*, i8*, i8*) local_unnamed_addr #2

; Function Attrs: mustprogress norecurse sspstrong uwtable
define dso_local i32 @main() local_unnamed_addr #3 {
  %1 = alloca i8, align 1
  %2 = alloca [1000 x i8], align 16
  %3 = getelementptr inbounds [1000 x i8], [1000 x i8]* %2, i64 0, i64 0
  call void @llvm.lifetime.start.p0i8(i64 1000, i8* nonnull %3) #7
  %4 = call nonnull align 8 dereferenceable(16) %"class.std::basic_istream"* @_ZNSi7getlineEPclc(%"class.std::basic_istream"* nonnull align 8 dereferenceable(16) @_ZSt3cin, i8* nonnull %3, i64 1000, i8 signext 10)
  %5 = call i64 @strlen(i8* noundef nonnull %3) #8
  %6 = trunc i64 %5 to i32
  %7 = getelementptr inbounds [1000 x i8], [1000 x i8]* %2, i64 0, i64 1
  %8 = load i8, i8* %7, align 1, !tbaa !5
  %9 = icmp eq i8 %8, 0
  br i1 %9, label %10, label %15

10:                                               ; preds = %130, %0
  %11 = phi i32 [ %6, %0 ], [ %132, %130 ]
  %12 = icmp sgt i32 %11, 0
  br i1 %12, label %13, label %144

13:                                               ; preds = %10
  %14 = zext i32 %11 to i64
  br label %137

15:                                               ; preds = %0, %130
  %16 = phi i8 [ %135, %130 ], [ %8, %0 ]
  %17 = phi i32 [ %132, %130 ], [ %6, %0 ]
  %18 = phi i32 [ %131, %130 ], [ 1, %0 ]
  %19 = add nsw i32 %18, -1
  %20 = sext i32 %19 to i64
  %21 = getelementptr inbounds [1000 x i8], [1000 x i8]* %2, i64 0, i64 %20
  %22 = load i8, i8* %21, align 1, !tbaa !5
  %23 = icmp eq i8 %22, 32
  %24 = icmp eq i8 %16, 32
  %25 = select i1 %23, i1 %24, i1 false
  br i1 %25, label %26, label %128

26:                                               ; preds = %15
  %27 = add i32 %17, -1
  %28 = icmp slt i32 %18, %27
  br i1 %28, label %29, label %130

29:                                               ; preds = %26
  %30 = sext i32 %18 to i64
  %31 = sext i32 %27 to i64
  %32 = sub nsw i64 %31, %30
  %33 = icmp ult i64 %32, 8
  br i1 %33, label %119, label %34

34:                                               ; preds = %29
  %35 = icmp ult i64 %32, 32
  br i1 %35, label %98, label %36

36:                                               ; preds = %34
  %37 = and i64 %32, -32
  %38 = add nsw i64 %37, -32
  %39 = lshr exact i64 %38, 5
  %40 = add nuw nsw i64 %39, 1
  %41 = and i64 %40, 1
  %42 = icmp eq i64 %38, 0
  br i1 %42, label %76, label %43

43:                                               ; preds = %36
  %44 = and i64 %40, 1152921504606846974
  br label %45

45:                                               ; preds = %45, %43
  %46 = phi i64 [ 0, %43 ], [ %73, %45 ]
  %47 = phi i64 [ %44, %43 ], [ %74, %45 ]
  %48 = add i64 %46, %30
  %49 = add nsw i64 %48, 1
  %50 = getelementptr inbounds [1000 x i8], [1000 x i8]* %2, i64 0, i64 %49
  %51 = bitcast i8* %50 to <16 x i8>*
  %52 = load <16 x i8>, <16 x i8>* %51, align 1, !tbaa !5
  %53 = getelementptr inbounds i8, i8* %50, i64 16
  %54 = bitcast i8* %53 to <16 x i8>*
  %55 = load <16 x i8>, <16 x i8>* %54, align 1, !tbaa !5
  %56 = getelementptr inbounds [1000 x i8], [1000 x i8]* %2, i64 0, i64 %48
  %57 = bitcast i8* %56 to <16 x i8>*
  store <16 x i8> %52, <16 x i8>* %57, align 1, !tbaa !5
  %58 = getelementptr inbounds i8, i8* %56, i64 16
  %59 = bitcast i8* %58 to <16 x i8>*
  store <16 x i8> %55, <16 x i8>* %59, align 1, !tbaa !5
  %60 = or i64 %46, 32
  %61 = add i64 %60, %30
  %62 = add nsw i64 %61, 1
  %63 = getelementptr inbounds [1000 x i8], [1000 x i8]* %2, i64 0, i64 %62
  %64 = bitcast i8* %63 to <16 x i8>*
  %65 = load <16 x i8>, <16 x i8>* %64, align 1, !tbaa !5
  %66 = getelementptr inbounds i8, i8* %63, i64 16
  %67 = bitcast i8* %66 to <16 x i8>*
  %68 = load <16 x i8>, <16 x i8>* %67, align 1, !tbaa !5
  %69 = getelementptr inbounds [1000 x i8], [1000 x i8]* %2, i64 0, i64 %61
  %70 = bitcast i8* %69 to <16 x i8>*
  store <16 x i8> %65, <16 x i8>* %70, align 1, !tbaa !5
  %71 = getelementptr inbounds i8, i8* %69, i64 16
  %72 = bitcast i8* %71 to <16 x i8>*
  store <16 x i8> %68, <16 x i8>* %72, align 1, !tbaa !5
  %73 = add nuw i64 %46, 64
  %74 = add i64 %47, -2
  %75 = icmp eq i64 %74, 0
  br i1 %75, label %76, label %45, !llvm.loop !8

76:                                               ; preds = %45, %36
  %77 = phi i64 [ 0, %36 ], [ %73, %45 ]
  %78 = icmp eq i64 %41, 0
  br i1 %78, label %92, label %79

79:                                               ; preds = %76
  %80 = add i64 %77, %30
  %81 = add nsw i64 %80, 1
  %82 = getelementptr inbounds [1000 x i8], [1000 x i8]* %2, i64 0, i64 %81
  %83 = bitcast i8* %82 to <16 x i8>*
  %84 = load <16 x i8>, <16 x i8>* %83, align 1, !tbaa !5
  %85 = getelementptr inbounds i8, i8* %82, i64 16
  %86 = bitcast i8* %85 to <16 x i8>*
  %87 = load <16 x i8>, <16 x i8>* %86, align 1, !tbaa !5
  %88 = getelementptr inbounds [1000 x i8], [1000 x i8]* %2, i64 0, i64 %80
  %89 = bitcast i8* %88 to <16 x i8>*
  store <16 x i8> %84, <16 x i8>* %89, align 1, !tbaa !5
  %90 = getelementptr inbounds i8, i8* %88, i64 16
  %91 = bitcast i8* %90 to <16 x i8>*
  store <16 x i8> %87, <16 x i8>* %91, align 1, !tbaa !5
  br label %92

92:                                               ; preds = %76, %79
  %93 = icmp eq i64 %32, %37
  br i1 %93, label %130, label %94

94:                                               ; preds = %92
  %95 = add nsw i64 %37, %30
  %96 = and i64 %32, 24
  %97 = icmp eq i64 %96, 0
  br i1 %97, label %119, label %98

98:                                               ; preds = %34, %94
  %99 = phi i64 [ %37, %94 ], [ 0, %34 ]
  %100 = add i32 %17, -1
  %101 = sext i32 %100 to i64
  %102 = sext i32 %18 to i64
  %103 = sub nsw i64 %101, %102
  %104 = and i64 %103, -8
  %105 = add nsw i64 %104, %30
  br label %106

106:                                              ; preds = %106, %98
  %107 = phi i64 [ %99, %98 ], [ %115, %106 ]
  %108 = add i64 %107, %30
  %109 = add nsw i64 %108, 1
  %110 = getelementptr inbounds [1000 x i8], [1000 x i8]* %2, i64 0, i64 %109
  %111 = bitcast i8* %110 to <8 x i8>*
  %112 = load <8 x i8>, <8 x i8>* %111, align 1, !tbaa !5
  %113 = getelementptr inbounds [1000 x i8], [1000 x i8]* %2, i64 0, i64 %108
  %114 = bitcast i8* %113 to <8 x i8>*
  store <8 x i8> %112, <8 x i8>* %114, align 1, !tbaa !5
  %115 = add nuw i64 %107, 8
  %116 = icmp eq i64 %115, %104
  br i1 %116, label %117, label %106, !llvm.loop !11

117:                                              ; preds = %106
  %118 = icmp eq i64 %103, %104
  br i1 %118, label %130, label %119

119:                                              ; preds = %29, %94, %117
  %120 = phi i64 [ %30, %29 ], [ %95, %94 ], [ %105, %117 ]
  br label %121

121:                                              ; preds = %119, %121
  %122 = phi i64 [ %123, %121 ], [ %120, %119 ]
  %123 = add nsw i64 %122, 1
  %124 = getelementptr inbounds [1000 x i8], [1000 x i8]* %2, i64 0, i64 %123
  %125 = load i8, i8* %124, align 1, !tbaa !5
  %126 = getelementptr inbounds [1000 x i8], [1000 x i8]* %2, i64 0, i64 %122
  store i8 %125, i8* %126, align 1, !tbaa !5
  %127 = icmp eq i64 %123, %31
  br i1 %127, label %130, label %121, !llvm.loop !12

128:                                              ; preds = %15
  %129 = add nsw i32 %18, 1
  br label %130

130:                                              ; preds = %121, %92, %117, %26, %128
  %131 = phi i32 [ %129, %128 ], [ %18, %26 ], [ %18, %117 ], [ %18, %92 ], [ %18, %121 ]
  %132 = phi i32 [ %17, %128 ], [ %27, %26 ], [ %27, %117 ], [ %27, %92 ], [ %27, %121 ]
  %133 = sext i32 %131 to i64
  %134 = getelementptr inbounds [1000 x i8], [1000 x i8]* %2, i64 0, i64 %133
  %135 = load i8, i8* %134, align 1, !tbaa !5
  %136 = icmp eq i8 %135, 0
  br i1 %136, label %10, label %15, !llvm.loop !14

137:                                              ; preds = %13, %137
  %138 = phi i64 [ 0, %13 ], [ %142, %137 ]
  %139 = getelementptr inbounds [1000 x i8], [1000 x i8]* %2, i64 0, i64 %138
  %140 = load i8, i8* %139, align 1, !tbaa !5
  call void @llvm.lifetime.start.p0i8(i64 1, i8* nonnull %1)
  store i8 %140, i8* %1, align 1, !tbaa !5
  %141 = call nonnull align 8 dereferenceable(8) %"class.std::basic_ostream"* @_ZSt16__ostream_insertIcSt11char_traitsIcEERSt13basic_ostreamIT_T0_ES6_PKS3_l(%"class.std::basic_ostream"* nonnull align 8 dereferenceable(8) @_ZSt4cout, i8* nonnull %1, i64 1)
  call void @llvm.lifetime.end.p0i8(i64 1, i8* nonnull %1)
  %142 = add nuw nsw i64 %138, 1
  %143 = icmp eq i64 %142, %14
  br i1 %143, label %144, label %137, !llvm.loop !15

144:                                              ; preds = %137, %10
  call void @llvm.lifetime.end.p0i8(i64 1000, i8* nonnull %3) #7
  ret i32 0
}

; Function Attrs: argmemonly mustprogress nofree nosync nounwind willreturn
declare void @llvm.lifetime.start.p0i8(i64 immarg, i8* nocapture) #4

declare nonnull align 8 dereferenceable(16) %"class.std::basic_istream"* @_ZNSi7getlineEPclc(%"class.std::basic_istream"* nonnull align 8 dereferenceable(16), i8*, i64, i8 signext) local_unnamed_addr #0

; Function Attrs: argmemonly mustprogress nofree nounwind readonly willreturn
declare i64 @strlen(i8* nocapture) local_unnamed_addr #5

; Function Attrs: argmemonly mustprogress nofree nosync nounwind willreturn
declare void @llvm.lifetime.end.p0i8(i64 immarg, i8* nocapture) #4

declare nonnull align 8 dereferenceable(8) %"class.std::basic_ostream"* @_ZSt16__ostream_insertIcSt11char_traitsIcEERSt13basic_ostreamIT_T0_ES6_PKS3_l(%"class.std::basic_ostream"* nonnull align 8 dereferenceable(8), i8*, i64) local_unnamed_addr #0

; Function Attrs: sspstrong uwtable
define internal void @_GLOBAL__sub_I_1932.cpp() #6 section ".text.startup" {
  tail call void @_ZNSt8ios_base4InitC1Ev(%"class.std::ios_base::Init"* nonnull align 1 dereferenceable(1) @_ZStL8__ioinit)
  %1 = tail call i32 @__cxa_atexit(void (i8*)* bitcast (void (%"class.std::ios_base::Init"*)* @_ZNSt8ios_base4InitD1Ev to void (i8*)*), i8* getelementptr inbounds (%"class.std::ios_base::Init", %"class.std::ios_base::Init"* @_ZStL8__ioinit, i64 0, i32 0), i8* nonnull @__dso_handle) #7
  ret void
}


!llvm.module.flags = !{!0, !1, !2, !3}
!llvm.ident = !{!4}

!0 = !{i32 1, !"wchar_size", i32 4}
!1 = !{i32 7, !"PIC Level", i32 2}
!2 = !{i32 7, !"PIE Level", i32 2}
!3 = !{i32 7, !"uwtable", i32 1}
!4 = !{!"clang version 13.0.0"}
!5 = !{!6, !6, i64 0}
!6 = !{!"omnipotent char", !7, i64 0}
!7 = !{!"Simple C++ TBAA"}
!8 = distinct !{!8, !9, !10}
!9 = !{!"llvm.loop.mustprogress"}
!10 = !{!"llvm.loop.isvectorized", i32 1}
!11 = distinct !{!11, !9, !10}
!12 = distinct !{!12, !9, !13, !10}
!13 = !{!"llvm.loop.unroll.runtime.disable"}
!14 = distinct !{!14, !9}
!15 = distinct !{!15, !9}
